#include <math.h>
#include <stdio.h>
#include <stdlib.h>
#include <string.h>

struct number
{
	int num;
	struct number *next;
}*p1,*p2,*head;
void main()
{
	int n,k,i;
	scanf("%d\n",&n);
	p1=p2=(struct number *)malloc(sizeof(struct number));
	head=NULL;
	for(i=0;i<n;i++)
	{
		scanf("%d",&p1->num);
		if(i==0)head=p1;
		else p2->next=p1;
		p2=p1;
		p1=(struct number *)malloc(sizeof(struct number));		
	}
	p2->next=NULL;
	scanf("%d",&k);
	p2=p1=head;
	while(p1!=NULL)
	{	
		if(k!=p1->num)	{p2=p1;p1=p1->next;}
		else
		{	if(p1==head){head=p1->next;free(p1);p1=head;}
		else {p2->next=p1->next;	
		free(p1);
		p1=p2->next;}
		}
	}
	for(p1=head;p1->next!=NULL;p1=p1->next)
		printf("%d ",p1->num);
	printf("%d\n",p1->num);
}